; Function Attrs: mustprogress uwtable
define dso_local void @_Z23CodegenAbslStrFormatIntB5cxx11i(ptr dead_on_unwind noalias writable sret(%"class.std::__cxx11::basic_string") align 8 %0, i32 noundef %1) local_unnamed_addr #4 {
  %3 = alloca [1 x %"class.absl::str_format_internal::FormatArgImpl"], align 8
  call void @llvm.lifetime.start.p0(i64 16, ptr nonnull %3) #24, !noalias !20
  %.sroa.0.0.insert.ext.i.i.i.i = zext i32 %1 to i64
  %4 = inttoptr i64 %.sroa.0.0.insert.ext.i.i.i.i to ptr
  store ptr %4, ptr %3, align 8, !tbaa !23, !noalias !20
  %5 = getelementptr inbounds nuw i8, ptr %3, i64 8
  store ptr @_ZN4absl19str_format_internal13FormatArgImpl8DispatchIiEEbNS1_4DataENS0_24FormatConversionSpecImplEPv, ptr %5, align 8, !tbaa !24, !noalias !20
  call void @_ZN4absl19str_format_internal10FormatPackB5cxx11ENS0_21UntypedFormatSpecImplENS_4SpanIKNS0_13FormatArgImplEEE(ptr dead_on_unwind writable sret(%"class.std::__cxx11::basic_string") align 8 %0, ptr nonnull @.str.142, i64 2, ptr nonnull %3, i64 1)
  call void @llvm.lifetime.end.p0(i64 16, ptr nonnull %3) #24, !noalias !20
  ret void
}